; Function Attrs: mustprogress uwtable
define hidden noundef zeroext i1 @_ZN6spacer7is_atomER11ast_managerP4expr(ptr noundef nonnull align 8 dereferenceable(976) %m, ptr noundef %n) local_unnamed_addr #3 {
entry:
  %e1 = alloca ptr, align 8
  %e2 = alloca ptr, align 8
  %m_kind.i.i = getelementptr inbounds i8, ptr %n, i64 4
  %bf.load.i.i = load i32, ptr %m_kind.i.i, align 4
  %bf.clear.i.i = and i32 %bf.load.i.i, 65535
  %cmp.i = icmp eq i32 %bf.clear.i.i, 2
  br i1 %cmp.i, label %return, label %lor.lhs.false

lor.lhs.false:                                    ; preds = %entry
  %call1 = tail call noundef zeroext i1 @_ZNK11ast_manager7is_boolEPK4expr(ptr noundef nonnull align 8 dereferenceable(976) %m, ptr noundef nonnull %n)
  br i1 %call1, label %if.end, label %return

if.end:                                           ; preds = %lor.lhs.false
  %bf.load.i.i18 = load i32, ptr %m_kind.i.i, align 4
  %bf.clear.i.i19 = and i32 %bf.load.i.i18, 65535
  %cmp.i20 = icmp eq i32 %bf.clear.i.i19, 1
  br i1 %cmp.i20, label %return, label %if.end4

if.end4:                                          ; preds = %if.end
  %m_decl.i.i = getelementptr inbounds i8, ptr %n, i64 16
  %0 = load ptr, ptr %m_decl.i.i, align 8
  %m_info.i.i = getelementptr inbounds i8, ptr %0, i64 24
  %1 = load ptr, ptr %m_info.i.i, align 8
  %cmp.i.i = icmp eq ptr %1, null
  br i1 %cmp.i.i, label %return, label %_ZNK3app13get_family_idEv.exit

_ZNK3app13get_family_idEv.exit:                   ; preds = %if.end4
  %2 = load i32, ptr %1, align 8
  %cmp.not = icmp eq i32 %2, 0
  br i1 %cmp.not, label %if.end9, label %return

if.end9:                                          ; preds = %_ZNK3app13get_family_idEv.exit
  %cmp.i.i21 = icmp eq i32 %bf.clear.i.i19, 0
  br i1 %cmp.i.i21, label %_ZNK11ast_manager5is_eqEPK4expr.exit, label %lor.lhs.false14

_ZNK11ast_manager5is_eqEPK4expr.exit:             ; preds = %if.end9
  %m_kind.i.i.i.i.i = getelementptr inbounds i8, ptr %1, i64 4
  %3 = load i32, ptr %m_kind.i.i.i.i.i, align 4
  %cmp2.i.i.i.i.i = icmp eq i32 %3, 2
  br i1 %cmp2.i.i.i.i.i, label %land.lhs.true, label %lor.lhs.false14

land.lhs.true:                                    ; preds = %_ZNK11ast_manager5is_eqEPK4expr.exit
  %m_args.i = getelementptr inbounds i8, ptr %n, i64 32
  %4 = load ptr, ptr %m_args.i, align 8
  %call13 = tail call noundef zeroext i1 @_ZNK11ast_manager7is_boolEPK4expr(ptr noundef nonnull align 8 dereferenceable(976) %m, ptr noundef %4)
  %m_true.i = getelementptr inbounds i8, ptr %m, i64 856
  %5 = load ptr, ptr %m_true.i, align 8
  %cmp.i22 = icmp ne ptr %5, %n
  %or.cond.not = select i1 %call13, i1 %cmp.i22, i1 false
  br i1 %or.cond.not, label %lor.lhs.false16, label %return

lor.lhs.false14:                                  ; preds = %if.end9, %_ZNK11ast_manager5is_eqEPK4expr.exit
  %m_true.i.old = getelementptr inbounds i8, ptr %m, i64 856
  %.old = load ptr, ptr %m_true.i.old, align 8
  %cmp.i22.old = icmp eq ptr %.old, %n
  br i1 %cmp.i22.old, label %return, label %lor.lhs.false16

lor.lhs.false16:                                  ; preds = %land.lhs.true, %lor.lhs.false14
  %m_false.i = getelementptr inbounds i8, ptr %m, i64 864
  %6 = load ptr, ptr %m_false.i, align 8
  %cmp.i23 = icmp eq ptr %6, %n
  br i1 %cmp.i23, label %return, label %if.end19

if.end19:                                         ; preds = %lor.lhs.false16
  %call20 = call noundef zeroext i1 @_ZNK11ast_manager5is_eqEPK4exprRPS0_S4_(ptr noundef nonnull align 8 dereferenceable(976) %m, ptr noundef nonnull %n, ptr noundef nonnull align 8 dereferenceable(8) %e1, ptr noundef nonnull align 8 dereferenceable(8) %e2)
  br i1 %call20, label %land.lhs.true21, label %if.end26

land.lhs.true21:                                  ; preds = %if.end19
  %7 = load ptr, ptr %e1, align 8
  %call22 = call noundef zeroext i1 @_ZN6spacer7is_atomER11ast_managerP4expr(ptr noundef nonnull align 8 dereferenceable(976) %m, ptr noundef %7)
  br i1 %call22, label %land.lhs.true23, label %if.end26

land.lhs.true23:                                  ; preds = %land.lhs.true21
  %8 = load ptr, ptr %e2, align 8
  %call24 = call noundef zeroext i1 @_ZN6spacer7is_atomER11ast_managerP4expr(ptr noundef nonnull align 8 dereferenceable(976) %m, ptr noundef %8)
  br i1 %call24, label %return, label %if.end26

if.end26:                                         ; preds = %land.lhs.true23, %land.lhs.true21, %if.end19
  br label %return

return:                                           ; preds = %if.end4, %land.lhs.true23, %land.lhs.true, %lor.lhs.false14, %lor.lhs.false16, %_ZNK3app13get_family_idEv.exit, %if.end, %entry, %lor.lhs.false, %if.end26
  %retval.0 = phi i1 [ false, %if.end26 ], [ false, %lor.lhs.false ], [ false, %entry ], [ true, %if.end ], [ true, %_ZNK3app13get_family_idEv.exit ], [ true, %lor.lhs.false16 ], [ true, %lor.lhs.false14 ], [ true, %land.lhs.true ], [ true, %land.lhs.true23 ], [ true, %if.end4 ]
  ret i1 %retval.0
}